# > openssl x509 -in glance/tests/var/certificate.crt -noout -text
# Certificate:
#     Data:
#         Version: 1 (0x0)
#         Serial Number: 1 (0x1)
#         Signature Algorithm: sha1WithRSAEncryption
#         Issuer: C=AU, ST=Some-State, O=OpenStack, OU=Glance, CN=Glance CA
#         Validity
#             Not Before: Feb  2 20:22:13 2015 GMT
#             Not After : Jan 31 20:22:13 2024 GMT
#         Subject: C=AU, ST=Some-State, O=OpenStack, OU=Glance, CN=127.0.0.1
#         Subject Public Key Info:
#             Public Key Algorithm: rsaEncryption
#             RSA Public Key: (4096 bit)
#                 Modulus (4096 bit):
#                     00:9f:44:13:51:de:e9:5a:f7:ac:33:2a:1a:4c:91:
#                     a1:73:bc:f3:a6:d3:e6:59:ae:e8:e2:34:68:3e:f4:
#                     40:c1:a1:1a:65:9a:a3:67:e9:2c:b9:79:9c:00:b1:
#                     7c:c1:e6:9e:de:47:bf:f1:cb:f2:73:d4:c3:62:fe:
#                     82:90:6f:b4:75:ca:7e:56:8f:99:3d:06:51:3c:40:
#                     f4:ff:74:97:4f:0d:d2:e6:66:76:8d:97:bf:89:ce:
#                     fe:b2:d7:89:71:f2:a0:d9:f5:26:7c:1a:7a:bf:2b:
#                     8f:72:80:e7:1f:4d:4a:40:a3:b9:9e:33:f6:55:e0:
#                     40:2b:1e:49:e4:8c:71:9d:11:32:cf:21:41:e1:13:
#                     28:c6:d6:f6:e0:b3:26:10:6d:5b:63:1d:c3:ee:d0:
#                     c4:66:63:38:89:6b:8f:2a:c2:bd:4f:e4:bc:03:8f:
#                     a2:f2:5c:1d:73:11:9c:7b:93:3d:d6:a3:d1:2d:cd:
#                     64:23:24:bc:65:3c:71:20:28:60:a0:ea:fe:77:0e:
#                     1d:95:36:76:ad:e7:2f:1c:27:62:55:e3:9d:11:c1:
#                     fb:43:3e:e5:21:ac:fd:0e:7e:3d:c9:44:d2:bd:6f:
#                     89:7e:0f:cb:88:54:57:fd:8d:21:c8:34:e1:47:01:
#                     28:0f:45:a1:7e:60:1a:9c:4c:0c:b8:c1:37:2d:46:
#                     ab:18:9e:ca:49:d3:77:b7:92:3a:d2:7f:ca:d5:02:
#                     f1:75:81:66:39:51:aa:bc:d7:f0:91:23:69:e8:71:
#                     ae:44:76:5e:87:54:eb:72:fc:ac:fd:60:22:e0:6a:
#                     e4:ad:37:b7:f6:e5:24:b4:95:2c:26:0e:75:a0:e9:
#                     ed:57:be:37:42:64:1f:02:49:0c:bd:5d:74:6d:e6:
#                     f2:da:5c:54:82:fa:fc:ff:3a:e4:1a:7a:a9:3c:3d:
#                     ee:b5:df:09:0c:69:c3:51:92:67:80:71:9b:10:8b:
#                     20:ff:a2:5e:c5:f2:86:a0:06:65:1c:42:f9:91:24:
#                     54:29:ed:7e:ec:db:4c:7b:54:ee:b1:25:1b:38:53:
#                     ae:01:b6:c5:93:1e:a3:4d:1b:e8:73:47:50:57:e8:
#                     ec:a0:80:53:b1:34:74:37:9a:c1:8c:14:64:2e:16:
#                     dd:a1:2e:d3:45:3e:2c:46:62:20:2a:93:7a:92:4c:
#                     b2:cc:64:47:ad:63:32:0b:68:0c:24:98:20:83:08:
#                     35:74:a7:68:7a:ef:d6:84:07:d1:5e:d7:c0:6c:3f:
#                     a7:4a:78:62:a8:70:75:37:fb:ce:1f:09:1e:7c:11:
#                     35:cc:b3:5a:a3:cc:3f:35:c9:ee:24:6f:63:f8:54:
#                     6f:7c:5b:b4:76:3d:f2:81:6d:ad:64:66:10:d0:c4:
#                     0b:2c:2f
#                 Exponent: 65537 (0x10001)
#     Signature Algorithm: sha1WithRSAEncryption
#         5f:e8:a8:93:20:6c:0f:12:90:a6:e2:64:21:ed:63:0e:8c:e0:
#         0f:d5:04:13:4d:2a:e9:a5:91:b7:e4:51:94:bd:0a:70:4b:94:
#         c7:1c:94:ed:d7:64:95:07:6b:a1:4a:bc:0b:53:b5:1a:7e:f1:
#         9c:12:59:24:5f:36:72:34:ca:33:ee:28:46:fd:21:e6:52:19:
#         0c:3d:94:6b:bd:cb:76:a1:45:7f:30:7b:71:f1:84:b6:3c:e0:
#         ac:af:13:81:9c:0e:6e:3c:9b:89:19:95:de:8e:9c:ef:70:ac:
#         07:ae:74:42:47:35:50:88:36:ec:32:1a:55:24:08:f2:44:57:
#         67:fe:0a:bb:6b:a7:bd:bc:af:bf:2a:e4:dd:53:84:6b:de:1d:
#         2a:28:21:38:06:7a:5b:d8:83:15:65:31:6d:61:67:00:9e:1a:
#         61:85:15:a2:4c:9a:eb:6d:59:8e:34:ac:2c:d5:24:4e:00:ff:
#         30:4d:a3:d5:80:63:17:52:65:ac:7f:f4:0a:8e:56:a4:97:51:
#         39:81:ae:e8:cb:52:09:b3:47:b4:fd:1b:e2:04:f9:f2:76:e3:
#         63:ef:90:aa:54:98:96:05:05:a9:91:76:18:ed:5d:9e:6e:88:
#         50:9a:f7:2c:ce:5e:54:ba:15:ec:62:ff:5d:be:af:35:03:b1:
#         3f:32:3e:0e
-----BEGIN CERTIFICATE-----
MIIEKjCCAxICAQEwDQYJKoZIhvcNAQEFBQAwWzELMAkGA1UEBhMCQVUxEzARBgNV
BAgMClNvbWUtU3RhdGUxEjAQBgNVBAoMCU9wZW5TdGFjazEPMA0GA1UECwwGR2xh
bmNlMRIwEAYDVQQDDAlHbGFuY2UgQ0EwHhcNMTUwMjAyMjAyMjEzWhcNMjQwMTMx
MjAyMjEzWjBbMQswCQYDVQQGEwJBVTETMBEGA1UECBMKU29tZS1TdGF0ZTESMBAG
A1UEChMJT3BlblN0YWNrMQ8wDQYDVQQLEwZHbGFuY2UxEjAQBgNVBAMTCTEyNy4w
LjAuMTCCAiIwDQYJKoZIhvcNAQEBBQADggIPADCCAgoCggIBAJ9EE1He6Vr3rDMq
GkyRoXO886bT5lmu6OI0aD70QMGhGmWao2fpLLl5nACxfMHmnt5Hv/HL8nPUw2L+
gpBvtHXKflaPmT0GUTxA9P90l08N0uZmdo2Xv4nO/rLXiXHyoNn1Jnwaer8rj3KA
5x9NSkCjuZ4z9lXgQCseSeSMcZ0RMs8hQeETKMbW9uCzJhBtW2Mdw+7QxGZjOIlr
jyrCvU/kvAOPovJcHXMRnHuTPdaj0S3NZCMkvGU8cSAoYKDq/ncOHZU2dq3nLxwn
YlXjnRHB+0M+5SGs/Q5+PclE0r1viX4Py4hUV/2NIcg04UcBKA9FoX5gGpxMDLjB
Ny1GqxieyknTd7eSOtJ/ytUC8XWBZjlRqrzX8JEjaehxrkR2XodU63L8rP1gIuBq
5K03t/blJLSVLCYOdaDp7Ve+N0JkHwJJDL1ddG3m8tpcVIL6/P865Bp6qTw97rXf
CQxpw1GSZ4BxmxCLIP+iXsXyhqAGZRxC+ZEkVCntfuzbTHtU7rElGzhTrgG2xZMe
o00b6HNHUFfo7KCAU7E0dDeawYwUZC4W3aEu00U+LEZiICqTepJMssxkR61jMgto
DCSYIIMINXSnaHrv1oQH0V7XwGw/p0p4YqhwdTf7zh8JHnwRNcyzWqPMPzXJ7iRv
Y/hUb3xbtHY98oFtrWRmENDECywvAgMBAAEwDQYJKoZIhvcNAQEFBQADggEBAF/o
qJMgbA8SkKbiZCHtYw6M4A/VBBNNKumlkbfkUZS9CnBLlMcclO3XZJUHa6FKvAtT
tRp+8ZwSWSRfNnI0yjPuKEb9IeZSGQw9lGu9y3ahRX8we3HxhLY84KyvE4GcDm48
m4kZld6OnO9wrAeudEJHNVCINuwyGlUkCPJEV2f+Crtrp728r78q5N1ThGveHSoo
ITgGelvYgxVlMW1hZwCeGmGFFaJMmuttWY40rCzVJE4A/zBNo9WAYxdSZax/9AqO
VqSXUTmBrujLUgmzR7T9G+IE+fJ242PvkKpUmJYFBamRdhjtXZ5uiFCa9yzOXlS6
Fexi/12+rzUDsT8yPg4=
-----END CERTIFICATE-----
